; Function Attrs: nounwind uwtable
define internal void @php_libxml_unlink_entity(ptr nocapture noundef readonly %0, ptr noundef %1, ptr noundef %2) #0 {
  %4 = load ptr, ptr %0, align 8
  %.not = icmp eq ptr %4, null
  br i1 %.not, label %7, label %5

5:                                                ; preds = %3
  %6 = tail call i32 @xmlHashRemoveEntry(ptr noundef %1, ptr noundef %2, ptr noundef null) #17
  br label %7

7:                                                ; preds = %5, %3
  ret void
}